target datalayout = "e-m:e-p270:32:32-p271:32:32-p272:64:64-i64:64-i128:128-f80:128-n8:16:32:64-S128"
target triple = "x86_64-pc-linux-gnu"

%"struct.llvm::rdf::DataFlowGraph" = type { %"class.std::unique_ptr", ptr, ptr, ptr, %"struct.llvm::rdf::PhysicalRegisterInfo", ptr, ptr, ptr, %"struct.llvm::rdf::RegisterAggr", %"struct.llvm::rdf::NodeAddr", %"struct.llvm::rdf::NodeAllocator", %"class.std::map", %"struct.llvm::rdf::LaneMaskIndex", %"struct.llvm::rdf::DataFlowGraph::Config", %"class.std::set", %"class.llvm::BitVector" }
%"class.std::unique_ptr" = type { %"struct.std::__uniq_ptr_data" }
%"struct.std::__uniq_ptr_data" = type { %"class.std::__uniq_ptr_impl" }
%"class.std::__uniq_ptr_impl" = type { %"class.std::tuple" }
%"class.std::tuple" = type { %"struct.std::_Tuple_impl" }
%"struct.std::_Tuple_impl" = type { %"struct.std::_Head_base.1" }
%"struct.std::_Head_base.1" = type { ptr }
%"struct.llvm::rdf::PhysicalRegisterInfo" = type { ptr, %"struct.llvm::rdf::IndexedSet", %"class.std::vector.2", %"class.std::vector.7", %"class.std::vector.12", %"class.std::vector.17" }
%"struct.llvm::rdf::IndexedSet" = type { %"class.std::vector" }
%"class.std::vector" = type { %"struct.std::_Vector_base" }
%"struct.std::_Vector_base" = type { %"struct.std::_Vector_base<const unsigned int *, std::allocator<const unsigned int *>>::_Vector_impl" }
%"struct.std::_Vector_base<const unsigned int *, std::allocator<const unsigned int *>>::_Vector_impl" = type { %"struct.std::_Vector_base<const unsigned int *, std::allocator<const unsigned int *>>::_Vector_impl_data" }
%"struct.std::_Vector_base<const unsigned int *, std::allocator<const unsigned int *>>::_Vector_impl_data" = type { ptr, ptr, ptr }
%"class.std::vector.2" = type { %"struct.std::_Vector_base.3" }
%"struct.std::_Vector_base.3" = type { %"struct.std::_Vector_base<llvm::rdf::PhysicalRegisterInfo::RegInfo, std::allocator<llvm::rdf::PhysicalRegisterInfo::RegInfo>>::_Vector_impl" }
%"struct.std::_Vector_base<llvm::rdf::PhysicalRegisterInfo::RegInfo, std::allocator<llvm::rdf::PhysicalRegisterInfo::RegInfo>>::_Vector_impl" = type { %"struct.std::_Vector_base<llvm::rdf::PhysicalRegisterInfo::RegInfo, std::allocator<llvm::rdf::PhysicalRegisterInfo::RegInfo>>::_Vector_impl_data" }
%"struct.std::_Vector_base<llvm::rdf::PhysicalRegisterInfo::RegInfo, std::allocator<llvm::rdf::PhysicalRegisterInfo::RegInfo>>::_Vector_impl_data" = type { ptr, ptr, ptr }
%"class.std::vector.7" = type { %"struct.std::_Vector_base.8" }
%"struct.std::_Vector_base.8" = type { %"struct.std::_Vector_base<llvm::rdf::PhysicalRegisterInfo::UnitInfo, std::allocator<llvm::rdf::PhysicalRegisterInfo::UnitInfo>>::_Vector_impl" }
%"struct.std::_Vector_base<llvm::rdf::PhysicalRegisterInfo::UnitInfo, std::allocator<llvm::rdf::PhysicalRegisterInfo::UnitInfo>>::_Vector_impl" = type { %"struct.std::_Vector_base<llvm::rdf::PhysicalRegisterInfo::UnitInfo, std::allocator<llvm::rdf::PhysicalRegisterInfo::UnitInfo>>::_Vector_impl_data" }
%"struct.std::_Vector_base<llvm::rdf::PhysicalRegisterInfo::UnitInfo, std::allocator<llvm::rdf::PhysicalRegisterInfo::UnitInfo>>::_Vector_impl_data" = type { ptr, ptr, ptr }
%"class.std::vector.12" = type { %"struct.std::_Vector_base.13" }
%"struct.std::_Vector_base.13" = type { %"struct.std::_Vector_base<llvm::rdf::PhysicalRegisterInfo::MaskInfo, std::allocator<llvm::rdf::PhysicalRegisterInfo::MaskInfo>>::_Vector_impl" }
%"struct.std::_Vector_base<llvm::rdf::PhysicalRegisterInfo::MaskInfo, std::allocator<llvm::rdf::PhysicalRegisterInfo::MaskInfo>>::_Vector_impl" = type { %"struct.std::_Vector_base<llvm::rdf::PhysicalRegisterInfo::MaskInfo, std::allocator<llvm::rdf::PhysicalRegisterInfo::MaskInfo>>::_Vector_impl_data" }
%"struct.std::_Vector_base<llvm::rdf::PhysicalRegisterInfo::MaskInfo, std::allocator<llvm::rdf::PhysicalRegisterInfo::MaskInfo>>::_Vector_impl_data" = type { ptr, ptr, ptr }
%"class.std::vector.17" = type { %"struct.std::_Vector_base.18" }
%"struct.std::_Vector_base.18" = type { %"struct.std::_Vector_base<llvm::rdf::PhysicalRegisterInfo::AliasInfo, std::allocator<llvm::rdf::PhysicalRegisterInfo::AliasInfo>>::_Vector_impl" }
%"struct.std::_Vector_base<llvm::rdf::PhysicalRegisterInfo::AliasInfo, std::allocator<llvm::rdf::PhysicalRegisterInfo::AliasInfo>>::_Vector_impl" = type { %"struct.std::_Vector_base<llvm::rdf::PhysicalRegisterInfo::AliasInfo, std::allocator<llvm::rdf::PhysicalRegisterInfo::AliasInfo>>::_Vector_impl_data" }
%"struct.std::_Vector_base<llvm::rdf::PhysicalRegisterInfo::AliasInfo, std::allocator<llvm::rdf::PhysicalRegisterInfo::AliasInfo>>::_Vector_impl_data" = type { ptr, ptr, ptr }
%"struct.llvm::rdf::RegisterAggr" = type { %"class.llvm::BitVector", ptr }
%"struct.llvm::rdf::NodeAddr" = type <{ ptr, i32, [4 x i8] }>
%"struct.llvm::rdf::NodeAllocator" = type { i32, i32, i32, ptr, %"class.std::vector.22", %"class.llvm::BumpPtrAllocatorImpl" }
%"class.std::vector.22" = type { %"struct.std::_Vector_base.23" }
%"struct.std::_Vector_base.23" = type { %"struct.std::_Vector_base<char *, std::allocator<char *>>::_Vector_impl" }
%"struct.std::_Vector_base<char *, std::allocator<char *>>::_Vector_impl" = type { %"struct.std::_Vector_base<char *, std::allocator<char *>>::_Vector_impl_data" }
%"struct.std::_Vector_base<char *, std::allocator<char *>>::_Vector_impl_data" = type { ptr, ptr, ptr }
%"class.llvm::BumpPtrAllocatorImpl" = type { ptr, ptr, %"class.llvm::SmallVector.28", %"class.llvm::SmallVector.33", i64, i64 }
%"class.llvm::SmallVector.28" = type { %"class.llvm::SmallVectorImpl.29", %"struct.llvm::SmallVectorStorage.32" }
%"class.llvm::SmallVectorImpl.29" = type { %"class.llvm::SmallVectorTemplateBase.30" }
%"class.llvm::SmallVectorTemplateBase.30" = type { %"class.llvm::SmallVectorTemplateCommon.31" }
%"class.llvm::SmallVectorTemplateCommon.31" = type { %"class.llvm::SmallVectorBase" }
%"class.llvm::SmallVectorBase" = type { ptr, i32, i32 }
%"struct.llvm::SmallVectorStorage.32" = type { [32 x i8] }
%"class.llvm::SmallVector.33" = type { %"class.llvm::SmallVectorImpl.34" }
%"class.llvm::SmallVectorImpl.34" = type { %"class.llvm::SmallVectorTemplateBase.35" }
%"class.llvm::SmallVectorTemplateBase.35" = type { %"class.llvm::SmallVectorTemplateCommon.36" }
%"class.llvm::SmallVectorTemplateCommon.36" = type { %"class.llvm::SmallVectorBase" }
%"class.std::map" = type { %"class.std::_Rb_tree" }
%"class.std::_Rb_tree" = type { %"struct.std::_Rb_tree<llvm::MachineBasicBlock *, std::pair<llvm::MachineBasicBlock *const, llvm::rdf::NodeAddr<llvm::rdf::BlockNode *>>, std::_Select1st<std::pair<llvm::MachineBasicBlock *const, llvm::rdf::NodeAddr<llvm::rdf::BlockNode *>>>, std::less<llvm::MachineBasicBlock *>>::_Rb_tree_impl" }
%"struct.std::_Rb_tree<llvm::MachineBasicBlock *, std::pair<llvm::MachineBasicBlock *const, llvm::rdf::NodeAddr<llvm::rdf::BlockNode *>>, std::_Select1st<std::pair<llvm::MachineBasicBlock *const, llvm::rdf::NodeAddr<llvm::rdf::BlockNode *>>>, std::less<llvm::MachineBasicBlock *>>::_Rb_tree_impl" = type { [8 x i8], %"struct.std::_Rb_tree_header" }
%"struct.std::_Rb_tree_header" = type { %"struct.std::_Rb_tree_node_base", i64 }
%"struct.std::_Rb_tree_node_base" = type { i32, ptr, ptr, ptr }
%"struct.llvm::rdf::LaneMaskIndex" = type { %"struct.llvm::rdf::IndexedSet.41" }
%"struct.llvm::rdf::IndexedSet.41" = type { %"class.std::vector.42" }
%"class.std::vector.42" = type { %"struct.std::_Vector_base.43" }
%"struct.std::_Vector_base.43" = type { %"struct.std::_Vector_base<llvm::LaneBitmask, std::allocator<llvm::LaneBitmask>>::_Vector_impl" }
%"struct.std::_Vector_base<llvm::LaneBitmask, std::allocator<llvm::LaneBitmask>>::_Vector_impl" = type { %"struct.std::_Vector_base<llvm::LaneBitmask, std::allocator<llvm::LaneBitmask>>::_Vector_impl_data" }
%"struct.std::_Vector_base<llvm::LaneBitmask, std::allocator<llvm::LaneBitmask>>::_Vector_impl_data" = type { ptr, ptr, ptr }
%"struct.llvm::rdf::DataFlowGraph::Config" = type { i32, %"class.llvm::SmallVector.47", %"class.std::set" }
%"class.llvm::SmallVector.47" = type { %"class.llvm::SmallVectorImpl.48", %"struct.llvm::SmallVectorStorage.51" }
%"class.llvm::SmallVectorImpl.48" = type { %"class.llvm::SmallVectorTemplateBase.49" }
%"class.llvm::SmallVectorTemplateBase.49" = type { %"class.llvm::SmallVectorTemplateCommon.50" }
%"class.llvm::SmallVectorTemplateCommon.50" = type { %"class.llvm::SmallVectorBase" }
%"struct.llvm::SmallVectorStorage.51" = type { [48 x i8] }
%"class.std::set" = type { %"class.std::_Rb_tree.52" }
%"class.std::_Rb_tree.52" = type { %"struct.std::_Rb_tree<unsigned int, unsigned int, std::_Identity<unsigned int>, std::less<unsigned int>>::_Rb_tree_impl" }
%"struct.std::_Rb_tree<unsigned int, unsigned int, std::_Identity<unsigned int>, std::less<unsigned int>>::_Rb_tree_impl" = type { [8 x i8], %"struct.std::_Rb_tree_header" }
%"class.llvm::BitVector" = type <{ %"class.llvm::SmallVector", i32, [4 x i8] }>
%"class.llvm::SmallVector" = type { %"class.llvm::SmallVectorImpl", %"struct.llvm::SmallVectorStorage" }
%"class.llvm::SmallVectorImpl" = type { %"class.llvm::SmallVectorTemplateBase" }
%"class.llvm::SmallVectorTemplateBase" = type { %"class.llvm::SmallVectorTemplateCommon" }
%"class.llvm::SmallVectorTemplateCommon" = type { %"class.llvm::SmallVectorBase" }
%"struct.llvm::SmallVectorStorage" = type { [48 x i8] }
%"struct.llvm::rdf::NodeAddr.58" = type <{ ptr, i32, [4 x i8] }>
%"struct.llvm::rdf::NodeBase" = type { i16, i16, i32, %union.anon }
%union.anon = type { %"struct.llvm::rdf::NodeBase::Ref_struct" }
%"struct.llvm::rdf::NodeBase::Ref_struct" = type { i32, i32, %union.anon.60, %union.anon.61 }
%union.anon.60 = type { %"struct.llvm::rdf::NodeBase::Def_struct" }
%"struct.llvm::rdf::NodeBase::Def_struct" = type { i32, i32 }
%union.anon.61 = type { ptr }

; Function Attrs: mustprogress nounwind uwtable
define linkonce_odr hidden noundef nonnull align 8 dereferenceable(8) ptr @_ZNKSt6vectorIPcSaIS0_EEixEm(ptr noundef nonnull align 8 dereferenceable(24) %0, i64 noundef %1) #0 comdat align 2 {
  %3 = alloca ptr, align 8
  %4 = alloca i64, align 8
  store ptr %0, ptr %3, align 8
  store i64 %1, ptr %4, align 8
  %5 = load ptr, ptr %3, align 8
  %6 = getelementptr inbounds nuw %"struct.std::_Vector_base.23", ptr %5, i32 0, i32 0
  %7 = getelementptr inbounds nuw %"struct.std::_Vector_base<char *, std::allocator<char *>>::_Vector_impl_data", ptr %6, i32 0, i32 0
  %8 = load ptr, ptr %7, align 8
  %9 = load i64, ptr %4, align 8
  %10 = getelementptr inbounds ptr, ptr %8, i64 %9
  ret ptr %10
}

; Function Attrs: mustprogress nounwind uwtable
define linkonce_odr hidden noundef ptr @_ZNK4llvm3rdf13NodeAllocator3ptrEj(ptr noundef nonnull align 8 dereferenceable(144) %0, i32 noundef %1) #0 comdat align 2 {
  %3 = alloca ptr, align 8
  %4 = alloca i32, align 4
  %5 = alloca i32, align 4
  %6 = alloca i32, align 4
  %7 = alloca i32, align 4
  store ptr %0, ptr %3, align 8
  store i32 %1, ptr %4, align 4
  %8 = load ptr, ptr %3, align 8
  %9 = load i32, ptr %4, align 4
  %10 = sub i32 %9, 1
  store i32 %10, ptr %5, align 4
  %11 = load i32, ptr %5, align 4
  %12 = getelementptr inbounds nuw %"struct.llvm::rdf::NodeAllocator", ptr %8, i32 0, i32 1
  %13 = load i32, ptr %12, align 4
  %14 = lshr i32 %11, %13
  store i32 %14, ptr %6, align 4
  %15 = load i32, ptr %5, align 4
  %16 = getelementptr inbounds nuw %"struct.llvm::rdf::NodeAllocator", ptr %8, i32 0, i32 2
  %17 = load i32, ptr %16, align 8
  %18 = and i32 %15, %17
  %19 = mul i32 %18, 32
  store i32 %19, ptr %7, align 4
  %20 = getelementptr inbounds nuw %"struct.llvm::rdf::NodeAllocator", ptr %8, i32 0, i32 4
  %21 = load i32, ptr %6, align 4
  %22 = zext i32 %21 to i64
  %23 = call noundef nonnull align 8 dereferenceable(8) ptr @_ZNKSt6vectorIPcSaIS0_EEixEm(ptr noundef nonnull align 8 dereferenceable(24) %20, i64 noundef %22) #11
  %24 = load ptr, ptr %23, align 8
  %25 = load i32, ptr %7, align 4
  %26 = zext i32 %25 to i64
  %27 = getelementptr inbounds i8, ptr %24, i64 %26
  ret ptr %27
}

; Function Attrs: mustprogress nounwind uwtable
define dso_local noundef ptr @_ZNK4llvm3rdf13DataFlowGraph3ptrEj(ptr noundef nonnull align 8 dereferenceable(736) %0, i32 noundef %1) #0 align 2 {
  %3 = alloca ptr, align 8
  %4 = alloca ptr, align 8
  %5 = alloca i32, align 4
  store ptr %0, ptr %4, align 8
  store i32 %1, ptr %5, align 4
  %6 = load ptr, ptr %4, align 8
  %7 = load i32, ptr %5, align 4
  %8 = icmp eq i32 %7, 0
  br i1 %8, label %9, label %10

9:                                                ; preds = %2
  store ptr null, ptr %3, align 8
  br label %14

10:                                               ; preds = %2
  %11 = getelementptr inbounds nuw %"struct.llvm::rdf::DataFlowGraph", ptr %6, i32 0, i32 10
  %12 = load i32, ptr %5, align 4
  %13 = call noundef ptr @_ZNK4llvm3rdf13NodeAllocator3ptrEj(ptr noundef nonnull align 8 dereferenceable(144) %11, i32 noundef %12)
  store ptr %13, ptr %3, align 8
  br label %14

14:                                               ; preds = %10, %9
  %15 = load ptr, ptr %3, align 8
  ret ptr %15
}

; Function Attrs: mustprogress nounwind uwtable
define linkonce_odr hidden noundef zeroext i16 @_ZN4llvm3rdf9NodeAttrs4typeEt(i16 noundef zeroext %0) #0 comdat align 2 {
  %2 = alloca i16, align 2
  store i16 %0, ptr %2, align 2
  %3 = load i16, ptr %2, align 2
  %4 = zext i16 %3 to i32
  %5 = and i32 %4, 3
  %6 = trunc i32 %5 to i16
  ret i16 %6
}

; Function Attrs: mustprogress nounwind uwtable
define linkonce_odr hidden void @_ZN4llvm3rdf8NodeAddrIPNS0_8NodeBaseEEC2ES3_j(ptr noundef nonnull align 8 dereferenceable(12) %0, ptr noundef %1, i32 noundef %2) unnamed_addr #0 comdat align 2 {
  %4 = alloca ptr, align 8
  %5 = alloca ptr, align 8
  %6 = alloca i32, align 4
  store ptr %0, ptr %4, align 8
  store ptr %1, ptr %5, align 8
  store i32 %2, ptr %6, align 4
  %7 = load ptr, ptr %4, align 8
  %8 = getelementptr inbounds nuw %"struct.llvm::rdf::NodeAddr.58", ptr %7, i32 0, i32 0
  %9 = load ptr, ptr %5, align 8
  store ptr %9, ptr %8, align 8
  %10 = getelementptr inbounds nuw %"struct.llvm::rdf::NodeAddr.58", ptr %7, i32 0, i32 1
  %11 = load i32, ptr %6, align 4
  store i32 %11, ptr %10, align 8
  ret void
}

; Function Attrs: mustprogress nounwind uwtable
define linkonce_odr hidden noundef ptr @_ZNK4llvm3rdf13DataFlowGraph3ptrIPNS0_8NodeBaseEEET_j(ptr noundef nonnull align 8 dereferenceable(736) %0, i32 noundef %1) #0 comdat align 2 {
  %3 = alloca ptr, align 8
  %4 = alloca i32, align 4
  store ptr %0, ptr %3, align 8
  store i32 %1, ptr %4, align 4
  %5 = load ptr, ptr %3, align 8
  %6 = load i32, ptr %4, align 4
  %7 = call noundef ptr @_ZNK4llvm3rdf13DataFlowGraph3ptrEj(ptr noundef nonnull align 8 dereferenceable(736) %5, i32 noundef %6)
  ret ptr %7
}

; Function Attrs: mustprogress nounwind uwtable
define linkonce_odr hidden noundef zeroext i16 @_ZNK4llvm3rdf8NodeBase7getTypeEv(ptr noundef nonnull align 8 dereferenceable(32) %0) #0 comdat align 2 {
  %2 = alloca ptr, align 8
  store ptr %0, ptr %2, align 8
  %3 = load ptr, ptr %2, align 8
  %4 = getelementptr inbounds nuw %"struct.llvm::rdf::NodeBase", ptr %3, i32 0, i32 0
  %5 = load i16, ptr %4, align 8
  %6 = call noundef zeroext i16 @_ZN4llvm3rdf9NodeAttrs4typeEt(i16 noundef zeroext %5)
  ret i16 %6
}

; Function Attrs: mustprogress nounwind uwtable
define linkonce_odr hidden { ptr, i32 } @_ZNK4llvm3rdf13DataFlowGraph4addrIPNS0_8NodeBaseEEENS0_8NodeAddrIT_EEj(ptr noundef nonnull align 8 dereferenceable(736) %0, i32 noundef %1) #0 comdat align 2 {
  %3 = alloca %"struct.llvm::rdf::NodeAddr.58", align 8
  %4 = alloca ptr, align 8
  %5 = alloca i32, align 4
  store ptr %0, ptr %4, align 8
  store i32 %1, ptr %5, align 4
  %6 = load ptr, ptr %4, align 8
  %7 = load i32, ptr %5, align 4
  %8 = call noundef ptr @_ZNK4llvm3rdf13DataFlowGraph3ptrIPNS0_8NodeBaseEEET_j(ptr noundef nonnull align 8 dereferenceable(736) %6, i32 noundef %7)
  %9 = load i32, ptr %5, align 4
  call void @_ZN4llvm3rdf8NodeAddrIPNS0_8NodeBaseEEC2ES3_j(ptr noundef nonnull align 8 dereferenceable(12) %3, ptr noundef %8, i32 noundef %9)
  %10 = load { ptr, i32 }, ptr %3, align 8
  ret { ptr, i32 } %10
}

; Function Attrs: mustprogress nounwind uwtable
define linkonce_odr hidden noundef i32 @_ZNK4llvm3rdf8NodeBase7getNextEv(ptr noundef nonnull align 8 dereferenceable(32) %0) #0 comdat align 2 {
  %2 = alloca ptr, align 8
  store ptr %0, ptr %2, align 8
  %3 = load ptr, ptr %2, align 8
  %4 = getelementptr inbounds nuw %"struct.llvm::rdf::NodeBase", ptr %3, i32 0, i32 2
  %5 = load i32, ptr %4, align 4
  ret i32 %5
}

; Function Attrs: mustprogress nounwind uwtable
define dso_local { ptr, i32 } @_ZN4llvm3rdf7RefNode8getOwnerERKNS0_13DataFlowGraphE(ptr noundef nonnull align 8 dereferenceable(32) %0, ptr noundef nonnull align 8 dereferenceable(736) %1) #0 align 2 {
  %3 = alloca %"struct.llvm::rdf::NodeAddr.58", align 8
  %4 = alloca ptr, align 8
  %5 = alloca ptr, align 8
  %6 = alloca { ptr, i32 }, align 8
  %7 = alloca %"struct.llvm::rdf::NodeAddr.58", align 8
  %8 = alloca { ptr, i32 }, align 8
  store ptr %0, ptr %4, align 8
  store ptr %1, ptr %5, align 8
  %9 = load ptr, ptr %4, align 8
  %10 = load ptr, ptr %5, align 8
  %11 = call noundef i32 @_ZNK4llvm3rdf8NodeBase7getNextEv(ptr noundef nonnull align 8 dereferenceable(32) %9)
  %12 = call { ptr, i32 } @_ZNK4llvm3rdf13DataFlowGraph4addrIPNS0_8NodeBaseEEENS0_8NodeAddrIT_EEj(ptr noundef nonnull align 8 dereferenceable(736) %10, i32 noundef %11)
  store { ptr, i32 } %12, ptr %6, align 8
  call void @llvm.memcpy.p0.p0.i64(ptr align 8 %3, ptr align 8 %6, i64 12, i1 false)
  br label %13

13:                                               ; preds = %25, %2
  %14 = getelementptr inbounds nuw %"struct.llvm::rdf::NodeAddr.58", ptr %3, i32 0, i32 0
  %15 = load ptr, ptr %14, align 8
  %16 = icmp ne ptr %15, %9
  br i1 %16, label %17, label %31

17:                                               ; preds = %13
  %18 = getelementptr inbounds nuw %"struct.llvm::rdf::NodeAddr.58", ptr %3, i32 0, i32 0
  %19 = load ptr, ptr %18, align 8
  %20 = call noundef zeroext i16 @_ZNK4llvm3rdf8NodeBase7getTypeEv(ptr noundef nonnull align 8 dereferenceable(32) %19)
  %21 = zext i16 %20 to i32
  %22 = icmp eq i32 %21, 1
  br i1 %22, label %23, label %25

23:                                               ; preds = %17
  %24 = load { ptr, i32 }, ptr %3, align 8
  ret { ptr, i32 } %24

25:                                               ; preds = %17
  %26 = load ptr, ptr %5, align 8
  %27 = getelementptr inbounds nuw %"struct.llvm::rdf::NodeAddr.58", ptr %3, i32 0, i32 0
  %28 = load ptr, ptr %27, align 8
  %29 = call noundef i32 @_ZNK4llvm3rdf8NodeBase7getNextEv(ptr noundef nonnull align 8 dereferenceable(32) %28)
  %30 = call { ptr, i32 } @_ZNK4llvm3rdf13DataFlowGraph4addrIPNS0_8NodeBaseEEENS0_8NodeAddrIT_EEj(ptr noundef nonnull align 8 dereferenceable(736) %26, i32 noundef %29)
  store { ptr, i32 } %30, ptr %8, align 8
  call void @llvm.memcpy.p0.p0.i64(ptr align 8 %7, ptr align 8 %8, i64 12, i1 false)
  call void @llvm.memcpy.p0.p0.i64(ptr align 8 %3, ptr align 8 %7, i64 12, i1 false)
  br label %13, !llvm.loop !7

31:                                               ; preds = %13
  unreachable
}